(lp0
(S'cppflags'
p1
ccopy_reg
_reconstructor
p2
(cino.utils
SpaceList
p3
c__builtin__
list
p4
(lp5
S'-mmcu=atmega328p'
p6
aS'-DF_CPU=16000000L'
p7
aS'-DARDUINO=105'
p8
aS'-I/usr/share/arduino/hardware/arduino/cores/arduino'
p9
aS'-ffunction-sections'
p10
aS'-fdata-sections'
p11
aS'-g'
p12
aS'-Os'
p13
aS'-w'
p14
aS'-I/usr/share/arduino/hardware/arduino/variants/standard'
p15
aS'-Ilib/Sail'
p16
aS'-Ilib/WindSensor'
p17
aS'-Ilib/ControllerInterface'
p18
aS'-Ilib/IMU'
p19
aS'-Ilib/GPS'
p20
aS'-Ilib/Rudder'
p21
aS'-Ilib/TinyGPSPlus'
p22
aS'-Ilib/TinyGPSPlus/src'
p23
aS'-Ilib/SensorsInterface'
p24
aS'-Ilib/Actuators'
p25
aS'-I/usr/share/arduino/libraries/Servo'
p26
aS'-Ilib/Sailboat'
p27
aS'-Ilib/Log'
p28
aS'-Ilib/Helper'
p29
aS'-I/usr/share/arduino/libraries/SD'
p30
aS'-I/usr/share/arduino/libraries/SD/utility'
p31
aS'-Ilib/LiquidCrystal-I2C'
p32
aS'-I/usr/share/arduino/libraries/SPI'
p33
aS'-I/usr/share/arduino/libraries/Wire'
p34
aS'-I/usr/share/arduino/libraries/Wire/utility'
p35
aS'-I/usr/share/arduino/hardware/arduino/cores/arduino'
p36
aS'-I/usr/share/arduino/hardware/arduino/cores/arduino/avr-libc'
p37
atp38
Rp39
tp40
a(S'cxx'
p41
S'/usr/share/arduino/hardware/tools/avr/bin/avr-g++'
p42
tp43
a(S'version.txt'
p44
S'/usr/share/arduino/lib/version.txt'
p45
tp46
a(S'used_libs'
p47
(lp48
S'lib/Sail'
p49
aS'lib/WindSensor'
p50
aS'lib/ControllerInterface'
p51
aS'lib/IMU'
p52
aS'lib/GPS'
p53
aS'lib/Rudder'
p54
aS'lib/TinyGPSPlus'
p55
aS'lib/SensorsInterface'
p56
aS'lib/Actuators'
p57
aS'/usr/share/arduino/libraries/Servo'
p58
aS'lib/Sailboat'
p59
aS'lib/Log'
p60
aS'lib/Helper'
p61
aS'/usr/share/arduino/libraries/SD'
p62
aS'lib/LiquidCrystal-I2C'
p63
aS'/usr/share/arduino/libraries/SPI'
p64
aS'/usr/share/arduino/libraries/Wire'
p65
aS'/usr/share/arduino/hardware/arduino/cores/arduino'
p66
atp67
a(S'cc'
p68
S'/usr/share/arduino/hardware/tools/avr/bin/avr-gcc'
p69
tp70
a(S'make'
p71
S'/usr/share/arduino/hardware/tools/avr/bin/make'
p72
tp73
a(S'cflags'
p74
g2
(g3
g4
(lp75
tp76
Rp77
tp78
a(S'build_dir'
p79
S'.build/uno'
p80
tp81
a(S'arduino_core_dir'
p82
g66
tp83
a(S'boards.txt'
p84
(lp85
S'/usr/share/arduino/hardware/arduino/boards.txt'
p86
atp87
a(S'cxxflags'
p88
g2
(g3
g4
(lp89
S'-fno-exceptions'
p90
atp91
Rp92
tp93
a(S'arduino_variants_dir'
p94
S'/usr/share/arduino/hardware/arduino/variants'
p95
tp96
a(S'ar'
p97
S'/usr/share/arduino/hardware/tools/avr/bin/avr-ar'
p98
tp99
a(S'names'
p100
(dp101
S'cpp'
p102
S'%s.cpp'
p103
sS'obj'
p104
S'%s.o'
p105
sS'deps'
p106
S'%s.d'
p107
sS'lib'
p108
S'lib%s.a'
p109
stp110
a(S'deps'
p111
g2
(g3
g4
(lp112
S'.build/uno/src/dependencies.d'
p113
aS'.build/uno/arduino/dependencies.d'
p114
aS'.build/uno/Log/dependencies.d'
p115
aS'.build/uno/WindSensor/dependencies.d'
p116
aS'.build/uno/Sail/dependencies.d'
p117
aS'.build/uno/Helper/dependencies.d'
p118
aS'.build/uno/SD/dependencies.d'
p119
aS'.build/uno/LiquidCrystal-I2C/dependencies.d'
p120
aS'.build/uno/Sailboat/dependencies.d'
p121
aS'.build/uno/ControllerInterface/dependencies.d'
p122
aS'.build/uno/Wire/dependencies.d'
p123
aS'.build/uno/IMU/dependencies.d'
p124
aS'.build/uno/TinyGPSPlus/dependencies.d'
p125
aS'.build/uno/SPI/dependencies.d'
p126
aS'.build/uno/SensorsInterface/dependencies.d'
p127
aS'.build/uno/Actuators/dependencies.d'
p128
aS'.build/uno/Servo/dependencies.d'
p129
aS'.build/uno/GPS/dependencies.d'
p130
aS'.build/uno/Rudder/dependencies.d'
p131
atp132
Rp133
tp134
a(S'arduino_libraries_dir'
p135
S'/usr/share/arduino/libraries'
p136
tp137
a(S'arduino_lib_version'
p138
g2
(cino.environment
Version
p139
c__builtin__
tuple
p140
(I1
I0
I5
tp141
tp142
Rp143
tp144
a(S'objcopy'
p145
S'/usr/share/arduino/hardware/tools/avr/bin/avr-objcopy'
p146
tp147
a(S'board_models'
p148
cino.environment
BoardModels
p149
((lp150
(lp151
S'uno'
p152
a(dp153
S'_coredir'
p154
S'/usr/share/arduino/hardware/arduino'
p155
sS'bootloader'
p156
(dp157
S'extended_fuses'
p158
S'0x05'
p159
sS'high_fuses'
p160
S'0xde'
p161
sS'low_fuses'
p162
S'0xff'
p163
sS'lock_bits'
p164
S'0x0F'
p165
sS'file'
p166
S'optiboot_atmega328.hex'
p167
sS'path'
p168
S'optiboot'
p169
sS'unlock_bits'
p170
S'0x3F'
p171
ssS'build'
p172
(dp173
S'core'
p174
S'arduino'
p175
sS'mcu'
p176
S'atmega328p'
p177
sS'f_cpu'
p178
S'16000000L'
p179
sS'variant'
p180
S'standard'
p181
ssS'name'
p182
S'Arduino Uno'
p183
sS'upload'
p184
(dp185
S'protocol'
p186
S'arduino'
p187
sS'maximum_size'
p188
S'32256'
p189
sS'speed'
p190
S'115200'
p191
ssaa(lp192
S'atmega328'
p193
a(dp194
g154
S'/usr/share/arduino/hardware/arduino'
p195
sS'bootloader'
p196
(dp197
S'extended_fuses'
p198
S'0x05'
p199
sS'high_fuses'
p200
S'0xDA'
p201
sS'low_fuses'
p202
S'0xFF'
p203
sS'lock_bits'
p204
S'0x0F'
p205
sS'file'
p206
S'ATmegaBOOT_168_atmega328.hex'
p207
sS'path'
p208
S'atmega'
p209
sS'unlock_bits'
p210
S'0x3F'
p211
ssS'build'
p212
(dp213
S'core'
p214
S'arduino'
p215
sS'mcu'
p216
S'atmega328p'
p217
sS'f_cpu'
p218
S'16000000L'
p219
sS'variant'
p220
S'standard'
p221
ssS'name'
p222
S'Arduino Duemilanove w/ ATmega328'
p223
sS'upload'
p224
(dp225
S'protocol'
p226
S'arduino'
p227
sS'maximum_size'
p228
S'30720'
p229
sS'speed'
p230
S'57600'
p231
ssaa(lp232
S'diecimila'
p233
a(dp234
g154
S'/usr/share/arduino/hardware/arduino'
p235
sS'bootloader'
p236
(dp237
S'extended_fuses'
p238
S'0x00'
p239
sS'high_fuses'
p240
S'0xdd'
p241
sS'low_fuses'
p242
S'0xff'
p243
sS'lock_bits'
p244
S'0x0F'
p245
sS'file'
p246
S'ATmegaBOOT_168_diecimila.hex'
p247
sS'path'
p248
S'atmega'
p249
sS'unlock_bits'
p250
S'0x3F'
p251
ssS'build'
p252
(dp253
S'core'
p254
S'arduino'
p255
sS'mcu'
p256
S'atmega168'
p257
sS'f_cpu'
p258
S'16000000L'
p259
sS'variant'
p260
S'standard'
p261
ssS'name'
p262
S'Arduino Diecimila or Duemilanove w/ ATmega168'
p263
sS'upload'
p264
(dp265
S'protocol'
p266
S'arduino'
p267
sS'maximum_size'
p268
S'14336'
p269
sS'speed'
p270
S'19200'
p271
ssaa(lp272
S'nano328'
p273
a(dp274
g154
S'/usr/share/arduino/hardware/arduino'
p275
sS'bootloader'
p276
(dp277
S'extended_fuses'
p278
S'0x05'
p279
sS'high_fuses'
p280
S'0xDA'
p281
sS'low_fuses'
p282
S'0xFF'
p283
sS'lock_bits'
p284
S'0x0F'
p285
sS'file'
p286
S'ATmegaBOOT_168_atmega328.hex'
p287
sS'path'
p288
S'atmega'
p289
sS'unlock_bits'
p290
S'0x3F'
p291
ssS'build'
p292
(dp293
S'core'
p294
S'arduino'
p295
sS'mcu'
p296
S'atmega328p'
p297
sS'f_cpu'
p298
S'16000000L'
p299
sS'variant'
p300
S'eightanaloginputs'
p301
ssS'name'
p302
S'Arduino Nano w/ ATmega328'
p303
sS'upload'
p304
(dp305
S'protocol'
p306
S'arduino'
p307
sS'maximum_size'
p308
S'30720'
p309
sS'speed'
p310
S'57600'
p311
ssaa(lp312
S'nano'
p313
a(dp314
g154
S'/usr/share/arduino/hardware/arduino'
p315
sS'bootloader'
p316
(dp317
S'extended_fuses'
p318
S'0x00'
p319
sS'high_fuses'
p320
S'0xdd'
p321
sS'low_fuses'
p322
S'0xff'
p323
sS'lock_bits'
p324
S'0x0F'
p325
sS'file'
p326
S'ATmegaBOOT_168_diecimila.hex'
p327
sS'path'
p328
S'atmega'
p329
sS'unlock_bits'
p330
S'0x3F'
p331
ssS'build'
p332
(dp333
S'core'
p334
S'arduino'
p335
sS'mcu'
p336
S'atmega168'
p337
sS'f_cpu'
p338
S'16000000L'
p339
sS'variant'
p340
S'eightanaloginputs'
p341
ssS'name'
p342
S'Arduino Nano w/ ATmega168'
p343
sS'upload'
p344
(dp345
S'protocol'
p346
S'arduino'
p347
sS'maximum_size'
p348
S'14336'
p349
sS'speed'
p350
S'19200'
p351
ssaa(lp352
S'mega2560'
p353
a(dp354
g154
S'/usr/share/arduino/hardware/arduino'
p355
sS'bootloader'
p356
(dp357
S'extended_fuses'
p358
S'0xFD'
p359
sS'high_fuses'
p360
S'0xD8'
p361
sS'low_fuses'
p362
S'0xFF'
p363
sS'lock_bits'
p364
S'0x0F'
p365
sS'file'
p366
S'stk500boot_v2_mega2560.hex'
p367
sS'path'
p368
S'stk500v2'
p369
sS'unlock_bits'
p370
S'0x3F'
p371
ssS'build'
p372
(dp373
S'core'
p374
S'arduino'
p375
sS'mcu'
p376
S'atmega2560'
p377
sS'f_cpu'
p378
S'16000000L'
p379
sS'variant'
p380
S'mega'
p381
ssS'name'
p382
S'Arduino Mega 2560 or Mega ADK'
p383
sS'upload'
p384
(dp385
S'protocol'
p386
S'wiring'
p387
sS'maximum_size'
p388
S'258048'
p389
sS'speed'
p390
S'115200'
p391
ssaa(lp392
S'mega'
p393
a(dp394
g154
S'/usr/share/arduino/hardware/arduino'
p395
sS'bootloader'
p396
(dp397
S'extended_fuses'
p398
S'0xF5'
p399
sS'high_fuses'
p400
S'0xDA'
p401
sS'low_fuses'
p402
S'0xFF'
p403
sS'lock_bits'
p404
S'0x0F'
p405
sS'file'
p406
S'ATmegaBOOT_168_atmega1280.hex'
p407
sS'path'
p408
S'atmega'
p409
sS'unlock_bits'
p410
S'0x3F'
p411
ssS'build'
p412
(dp413
S'core'
p414
S'arduino'
p415
sS'mcu'
p416
S'atmega1280'
p417
sS'f_cpu'
p418
S'16000000L'
p419
sS'variant'
p420
S'mega'
p421
ssS'name'
p422
S'Arduino Mega (ATmega1280)'
p423
sS'upload'
p424
(dp425
S'protocol'
p426
S'arduino'
p427
sS'maximum_size'
p428
S'126976'
p429
sS'speed'
p430
S'57600'
p431
ssaa(lp432
S'leonardo'
p433
a(dp434
g154
S'/usr/share/arduino/hardware/arduino'
p435
sS'bootloader'
p436
(dp437
S'extended_fuses'
p438
S'0xcb'
p439
sS'high_fuses'
p440
S'0xd8'
p441
sS'low_fuses'
p442
S'0xff'
p443
sS'lock_bits'
p444
S'0x2F'
p445
sS'file'
p446
S'Caterina-Leonardo.hex'
p447
sS'path'
p448
S'caterina'
p449
sS'unlock_bits'
p450
S'0x3F'
p451
ssS'build'
p452
(dp453
S'core'
p454
S'arduino'
p455
sS'f_cpu'
p456
S'16000000L'
p457
sS'vid'
p458
S'0x2341'
p459
sS'pid'
p460
S'0x8036'
p461
sS'variant'
p462
S'leonardo'
p463
sS'mcu'
p464
S'atmega32u4'
p465
ssS'name'
p466
S'Arduino Leonardo'
p467
sS'upload'
p468
(dp469
S'protocol'
p470
S'avr109'
p471
sS'maximum_size'
p472
S'28672'
p473
sS'speed'
p474
S'57600'
p475
sS'disable_flushing'
p476
S'true'
p477
ssaa(lp478
S'esplora'
p479
a(dp480
g154
S'/usr/share/arduino/hardware/arduino'
p481
sS'bootloader'
p482
(dp483
S'extended_fuses'
p484
S'0xcb'
p485
sS'high_fuses'
p486
S'0xd8'
p487
sS'low_fuses'
p488
S'0xff'
p489
sS'lock_bits'
p490
S'0x2F'
p491
sS'file'
p492
S'Caterina-Esplora.hex'
p493
sS'path'
p494
S'caterina'
p495
sS'unlock_bits'
p496
S'0x3F'
p497
ssS'build'
p498
(dp499
S'core'
p500
S'arduino'
p501
sS'f_cpu'
p502
S'16000000L'
p503
sS'vid'
p504
S'0x2341'
p505
sS'pid'
p506
S'0x803C'
p507
sS'variant'
p508
S'leonardo'
p509
sS'mcu'
p510
S'atmega32u4'
p511
ssS'name'
p512
S'Arduino Esplora'
p513
sS'upload'
p514
(dp515
S'protocol'
p516
S'avr109'
p517
sS'maximum_size'
p518
S'28672'
p519
sS'speed'
p520
S'57600'
p521
sS'disable_flushing'
p522
S'true'
p523
ssaa(lp524
S'micro'
p525
a(dp526
g154
S'/usr/share/arduino/hardware/arduino'
p527
sS'bootloader'
p528
(dp529
S'extended_fuses'
p530
S'0xcb'
p531
sS'high_fuses'
p532
S'0xd8'
p533
sS'low_fuses'
p534
S'0xff'
p535
sS'lock_bits'
p536
S'0x2F'
p537
sS'file'
p538
S'Caterina-Micro.hex'
p539
sS'path'
p540
S'caterina'
p541
sS'unlock_bits'
p542
S'0x3F'
p543
ssS'build'
p544
(dp545
S'core'
p546
S'arduino'
p547
sS'f_cpu'
p548
S'16000000L'
p549
sS'vid'
p550
S'0x2341'
p551
sS'pid'
p552
S'0x8037'
p553
sS'variant'
p554
S'micro'
p555
sS'mcu'
p556
S'atmega32u4'
p557
ssS'name'
p558
S'Arduino Micro'
p559
sS'upload'
p560
(dp561
S'protocol'
p562
S'avr109'
p563
sS'maximum_size'
p564
S'28672'
p565
sS'speed'
p566
S'57600'
p567
sS'disable_flushing'
p568
S'true'
p569
ssaa(lp570
S'mini328'
p571
a(dp572
g154
S'/usr/share/arduino/hardware/arduino'
p573
sS'bootloader'
p574
(dp575
S'extended_fuses'
p576
S'0x05'
p577
sS'high_fuses'
p578
S'0xd8'
p579
sS'low_fuses'
p580
S'0xff'
p581
sS'lock_bits'
p582
S'0x0F'
p583
sS'file'
p584
S'optiboot_atmega328-Mini.hex'
p585
sS'path'
p586
S'optiboot'
p587
sS'unlock_bits'
p588
S'0x3F'
p589
ssS'build'
p590
(dp591
S'core'
p592
S'arduino'
p593
sS'mcu'
p594
S'atmega328p'
p595
sS'f_cpu'
p596
S'16000000L'
p597
sS'variant'
p598
S'eightanaloginputs'
p599
ssS'name'
p600
S'Arduino Mini w/ ATmega328'
p601
sS'upload'
p602
(dp603
S'protocol'
p604
S'arduino'
p605
sS'maximum_size'
p606
S'28672'
p607
sS'speed'
p608
S'115200'
p609
ssaa(lp610
S'mini'
p611
a(dp612
g154
S'/usr/share/arduino/hardware/arduino'
p613
sS'bootloader'
p614
(dp615
S'extended_fuses'
p616
S'0x00'
p617
sS'high_fuses'
p618
S'0xdd'
p619
sS'low_fuses'
p620
S'0xff'
p621
sS'lock_bits'
p622
S'0x0F'
p623
sS'file'
p624
S'ATmegaBOOT_168_ng.hex'
p625
sS'path'
p626
S'atmega'
p627
sS'unlock_bits'
p628
S'0x3F'
p629
ssS'build'
p630
(dp631
S'core'
p632
S'arduino'
p633
sS'mcu'
p634
S'atmega168'
p635
sS'f_cpu'
p636
S'16000000L'
p637
sS'variant'
p638
S'eightanaloginputs'
p639
ssS'name'
p640
S'Arduino Mini w/ ATmega168'
p641
sS'upload'
p642
(dp643
S'protocol'
p644
S'arduino'
p645
sS'maximum_size'
p646
S'14336'
p647
sS'speed'
p648
S'19200'
p649
ssaa(lp650
S'ethernet'
p651
a(dp652
g154
S'/usr/share/arduino/hardware/arduino'
p653
sS'bootloader'
p654
(dp655
S'extended_fuses'
p656
S'0x05'
p657
sS'high_fuses'
p658
S'0xde'
p659
sS'low_fuses'
p660
S'0xff'
p661
sS'lock_bits'
p662
S'0x0F'
p663
sS'file'
p664
S'optiboot_atmega328.hex'
p665
sS'path'
p666
S'optiboot'
p667
sS'unlock_bits'
p668
S'0x3F'
p669
ssS'build'
p670
(dp671
S'variant'
p672
S'standard'
p673
sS'mcu'
p674
S'atmega328p'
p675
sS'f_cpu'
p676
S'16000000L'
p677
sS'core'
p678
S'arduino'
p679
ssS'name'
p680
S'Arduino Ethernet'
p681
sS'upload'
p682
(dp683
S'protocol'
p684
S'arduino'
p685
sS'maximum_size'
p686
S'32256'
p687
sS'speed'
p688
S'115200'
p689
ssaa(lp690
S'fio'
p691
a(dp692
g154
S'/usr/share/arduino/hardware/arduino'
p693
sS'bootloader'
p694
(dp695
S'extended_fuses'
p696
S'0x05'
p697
sS'high_fuses'
p698
S'0xDA'
p699
sS'low_fuses'
p700
S'0xFF'
p701
sS'lock_bits'
p702
S'0x0F'
p703
sS'file'
p704
S'ATmegaBOOT_168_atmega328_pro_8MHz.hex'
p705
sS'path'
p706
S'arduino:atmega'
p707
sS'unlock_bits'
p708
S'0x3F'
p709
ssS'build'
p710
(dp711
S'core'
p712
S'arduino'
p713
sS'mcu'
p714
S'atmega328p'
p715
sS'f_cpu'
p716
S'8000000L'
p717
sS'variant'
p718
S'eightanaloginputs'
p719
ssS'name'
p720
S'Arduino Fio'
p721
sS'upload'
p722
(dp723
S'protocol'
p724
S'arduino'
p725
sS'maximum_size'
p726
S'30720'
p727
sS'speed'
p728
S'57600'
p729
ssaa(lp730
S'bt328'
p731
a(dp732
g154
S'/usr/share/arduino/hardware/arduino'
p733
sS'bootloader'
p734
(dp735
S'extended_fuses'
p736
S'0x05'
p737
sS'high_fuses'
p738
S'0xd8'
p739
sS'low_fuses'
p740
S'0xff'
p741
sS'lock_bits'
p742
S'0x0F'
p743
sS'file'
p744
S'ATmegaBOOT_168_atmega328_bt.hex'
p745
sS'path'
p746
S'bt'
p747
sS'unlock_bits'
p748
S'0x3F'
p749
ssS'build'
p750
(dp751
S'core'
p752
S'arduino'
p753
sS'mcu'
p754
S'atmega328p'
p755
sS'f_cpu'
p756
S'16000000L'
p757
sS'variant'
p758
S'eightanaloginputs'
p759
ssS'name'
p760
S'Arduino BT w/ ATmega328'
p761
sS'upload'
p762
(dp763
S'protocol'
p764
S'arduino'
p765
sS'maximum_size'
p766
S'28672'
p767
sS'speed'
p768
S'19200'
p769
sS'disable_flushing'
p770
S'true'
p771
ssaa(lp772
S'bt'
p773
a(dp774
g154
S'/usr/share/arduino/hardware/arduino'
p775
sS'bootloader'
p776
(dp777
S'extended_fuses'
p778
S'0x00'
p779
sS'high_fuses'
p780
S'0xdd'
p781
sS'low_fuses'
p782
S'0xff'
p783
sS'lock_bits'
p784
S'0x0F'
p785
sS'file'
p786
S'ATmegaBOOT_168.hex'
p787
sS'path'
p788
S'bt'
p789
sS'unlock_bits'
p790
S'0x3F'
p791
ssS'build'
p792
(dp793
S'core'
p794
S'arduino'
p795
sS'mcu'
p796
S'atmega168'
p797
sS'f_cpu'
p798
S'16000000L'
p799
sS'variant'
p800
S'eightanaloginputs'
p801
ssS'name'
p802
S'Arduino BT w/ ATmega168'
p803
sS'upload'
p804
(dp805
S'protocol'
p806
S'arduino'
p807
sS'maximum_size'
p808
S'14336'
p809
sS'speed'
p810
S'19200'
p811
sS'disable_flushing'
p812
S'true'
p813
ssaa(lp814
S'LilyPadUSB'
p815
a(dp816
g154
S'/usr/share/arduino/hardware/arduino'
p817
sS'bootloader'
p818
(dp819
S'extended_fuses'
p820
S'0xce'
p821
sS'high_fuses'
p822
S'0xd8'
p823
sS'low_fuses'
p824
S'0xff'
p825
sS'lock_bits'
p826
S'0x2F'
p827
sS'file'
p828
S'Caterina-LilyPadUSB.hex'
p829
sS'path'
p830
S'caterina-LilyPadUSB'
p831
sS'unlock_bits'
p832
S'0x3F'
p833
ssS'build'
p834
(dp835
S'core'
p836
S'arduino'
p837
sS'f_cpu'
p838
S'8000000L'
p839
sS'vid'
p840
S'0x1B4F'
p841
sS'pid'
p842
S'0x9208'
p843
sS'variant'
p844
S'leonardo'
p845
sS'mcu'
p846
S'atmega32u4'
p847
ssS'name'
p848
S'LilyPad Arduino USB'
p849
sS'upload'
p850
(dp851
S'protocol'
p852
S'avr109'
p853
sS'maximum_size'
p854
S'28672'
p855
sS'speed'
p856
S'57600'
p857
sS'disable_flushing'
p858
S'true'
p859
ssaa(lp860
S'lilypad328'
p861
a(dp862
g154
S'/usr/share/arduino/hardware/arduino'
p863
sS'bootloader'
p864
(dp865
S'extended_fuses'
p866
S'0x05'
p867
sS'high_fuses'
p868
S'0xDA'
p869
sS'low_fuses'
p870
S'0xFF'
p871
sS'lock_bits'
p872
S'0x0F'
p873
sS'file'
p874
S'ATmegaBOOT_168_atmega328_pro_8MHz.hex'
p875
sS'path'
p876
S'atmega'
p877
sS'unlock_bits'
p878
S'0x3F'
p879
ssS'build'
p880
(dp881
S'core'
p882
S'arduino'
p883
sS'mcu'
p884
S'atmega328p'
p885
sS'f_cpu'
p886
S'8000000L'
p887
sS'variant'
p888
S'standard'
p889
ssS'name'
p890
S'LilyPad Arduino w/ ATmega328'
p891
sS'upload'
p892
(dp893
S'protocol'
p894
S'arduino'
p895
sS'maximum_size'
p896
S'30720'
p897
sS'speed'
p898
S'57600'
p899
ssaa(lp900
S'lilypad'
p901
a(dp902
g154
S'/usr/share/arduino/hardware/arduino'
p903
sS'bootloader'
p904
(dp905
S'extended_fuses'
p906
S'0x00'
p907
sS'high_fuses'
p908
S'0xdd'
p909
sS'low_fuses'
p910
S'0xe2'
p911
sS'lock_bits'
p912
S'0x0F'
p913
sS'file'
p914
S'LilyPadBOOT_168.hex'
p915
sS'path'
p916
S'lilypad'
p917
sS'unlock_bits'
p918
S'0x3F'
p919
ssS'build'
p920
(dp921
S'core'
p922
S'arduino'
p923
sS'mcu'
p924
S'atmega168'
p925
sS'f_cpu'
p926
S'8000000L'
p927
sS'variant'
p928
S'standard'
p929
ssS'name'
p930
S'LilyPad Arduino w/ ATmega168'
p931
sS'upload'
p932
(dp933
S'protocol'
p934
S'arduino'
p935
sS'maximum_size'
p936
S'14336'
p937
sS'speed'
p938
S'19200'
p939
ssaa(lp940
S'pro5v328'
p941
a(dp942
g154
S'/usr/share/arduino/hardware/arduino'
p943
sS'bootloader'
p944
(dp945
S'extended_fuses'
p946
S'0x05'
p947
sS'high_fuses'
p948
S'0xDA'
p949
sS'low_fuses'
p950
S'0xFF'
p951
sS'lock_bits'
p952
S'0x0F'
p953
sS'file'
p954
S'ATmegaBOOT_168_atmega328.hex'
p955
sS'path'
p956
S'atmega'
p957
sS'unlock_bits'
p958
S'0x3F'
p959
ssS'build'
p960
(dp961
S'core'
p962
S'arduino'
p963
sS'mcu'
p964
S'atmega328p'
p965
sS'f_cpu'
p966
S'16000000L'
p967
sS'variant'
p968
S'standard'
p969
ssS'name'
p970
S'Arduino Pro or Pro Mini (5V, 16 MHz) w/ ATmega328'
p971
sS'upload'
p972
(dp973
S'protocol'
p974
S'arduino'
p975
sS'maximum_size'
p976
S'30720'
p977
sS'speed'
p978
S'57600'
p979
ssaa(lp980
S'pro5v'
p981
a(dp982
g154
S'/usr/share/arduino/hardware/arduino'
p983
sS'bootloader'
p984
(dp985
S'extended_fuses'
p986
S'0x00'
p987
sS'high_fuses'
p988
S'0xdd'
p989
sS'low_fuses'
p990
S'0xff'
p991
sS'lock_bits'
p992
S'0x0F'
p993
sS'file'
p994
S'ATmegaBOOT_168_diecimila.hex'
p995
sS'path'
p996
S'atmega'
p997
sS'unlock_bits'
p998
S'0x3F'
p999
ssS'build'
p1000
(dp1001
S'core'
p1002
S'arduino'
p1003
sS'mcu'
p1004
S'atmega168'
p1005
sS'f_cpu'
p1006
S'16000000L'
p1007
sS'variant'
p1008
S'standard'
p1009
ssS'name'
p1010
S'Arduino Pro or Pro Mini (5V, 16 MHz) w/ ATmega168'
p1011
sS'upload'
p1012
(dp1013
S'protocol'
p1014
S'arduino'
p1015
sS'maximum_size'
p1016
S'14336'
p1017
sS'speed'
p1018
S'19200'
p1019
ssaa(lp1020
S'pro328'
p1021
a(dp1022
g154
S'/usr/share/arduino/hardware/arduino'
p1023
sS'bootloader'
p1024
(dp1025
S'extended_fuses'
p1026
S'0x05'
p1027
sS'high_fuses'
p1028
S'0xDA'
p1029
sS'low_fuses'
p1030
S'0xFF'
p1031
sS'lock_bits'
p1032
S'0x0F'
p1033
sS'file'
p1034
S'ATmegaBOOT_168_atmega328_pro_8MHz.hex'
p1035
sS'path'
p1036
S'atmega'
p1037
sS'unlock_bits'
p1038
S'0x3F'
p1039
ssS'build'
p1040
(dp1041
S'core'
p1042
S'arduino'
p1043
sS'mcu'
p1044
S'atmega328p'
p1045
sS'f_cpu'
p1046
S'8000000L'
p1047
sS'variant'
p1048
S'standard'
p1049
ssS'name'
p1050
S'Arduino Pro or Pro Mini (3.3V, 8 MHz) w/ ATmega328'
p1051
sS'upload'
p1052
(dp1053
S'protocol'
p1054
S'arduino'
p1055
sS'maximum_size'
p1056
S'30720'
p1057
sS'speed'
p1058
S'57600'
p1059
ssaa(lp1060
S'pro'
p1061
a(dp1062
g154
S'/usr/share/arduino/hardware/arduino'
p1063
sS'bootloader'
p1064
(dp1065
S'extended_fuses'
p1066
S'0x00'
p1067
sS'high_fuses'
p1068
S'0xdd'
p1069
sS'low_fuses'
p1070
S'0xc6'
p1071
sS'lock_bits'
p1072
S'0x0F'
p1073
sS'file'
p1074
S'ATmegaBOOT_168_pro_8MHz.hex'
p1075
sS'path'
p1076
S'atmega'
p1077
sS'unlock_bits'
p1078
S'0x3F'
p1079
ssS'build'
p1080
(dp1081
S'core'
p1082
S'arduino'
p1083
sS'mcu'
p1084
S'atmega168'
p1085
sS'f_cpu'
p1086
S'8000000L'
p1087
sS'variant'
p1088
S'standard'
p1089
ssS'name'
p1090
S'Arduino Pro or Pro Mini (3.3V, 8 MHz) w/ ATmega168'
p1091
sS'upload'
p1092
(dp1093
S'protocol'
p1094
S'arduino'
p1095
sS'maximum_size'
p1096
S'14336'
p1097
sS'speed'
p1098
S'19200'
p1099
ssaa(lp1100
S'atmega168'
p1101
a(dp1102
g154
S'/usr/share/arduino/hardware/arduino'
p1103
sS'bootloader'
p1104
(dp1105
S'extended_fuses'
p1106
S'0x00'
p1107
sS'high_fuses'
p1108
S'0xdd'
p1109
sS'low_fuses'
p1110
S'0xff'
p1111
sS'lock_bits'
p1112
S'0x0F'
p1113
sS'file'
p1114
S'ATmegaBOOT_168_ng.hex'
p1115
sS'path'
p1116
S'atmega'
p1117
sS'unlock_bits'
p1118
S'0x3F'
p1119
ssS'build'
p1120
(dp1121
S'core'
p1122
S'arduino'
p1123
sS'mcu'
p1124
S'atmega168'
p1125
sS'f_cpu'
p1126
S'16000000L'
p1127
sS'variant'
p1128
S'standard'
p1129
ssS'name'
p1130
S'Arduino NG or older w/ ATmega168'
p1131
sS'upload'
p1132
(dp1133
S'protocol'
p1134
S'arduino'
p1135
sS'maximum_size'
p1136
S'14336'
p1137
sS'speed'
p1138
S'19200'
p1139
ssaa(lp1140
S'atmega8'
p1141
a(dp1142
g154
S'/usr/share/arduino/hardware/arduino'
p1143
sS'bootloader'
p1144
(dp1145
S'high_fuses'
p1146
S'0xca'
p1147
sS'low_fuses'
p1148
S'0xdf'
p1149
sS'lock_bits'
p1150
S'0x0F'
p1151
sS'file'
p1152
S'ATmegaBOOT-prod-firmware-2009-11-07.hex'
p1153
sS'path'
p1154
S'atmega8'
p1155
sS'unlock_bits'
p1156
S'0x3F'
p1157
ssS'build'
p1158
(dp1159
S'core'
p1160
S'arduino'
p1161
sS'mcu'
p1162
S'atmega8'
p1163
sS'f_cpu'
p1164
S'16000000L'
p1165
sS'variant'
p1166
S'standard'
p1167
ssS'name'
p1168
S'Arduino NG or older w/ ATmega8'
p1169
sS'upload'
p1170
(dp1171
S'protocol'
p1172
S'arduino'
p1173
sS'maximum_size'
p1174
S'7168'
p1175
sS'speed'
p1176
S'19200'
p1177
ssaa(lp1178
S'robotControl'
p1179
a(dp1180
g154
S'/usr/share/arduino/hardware/arduino'
p1181
sS'bootloader'
p1182
(dp1183
S'extended_fuses'
p1184
S'0xcb'
p1185
sS'high_fuses'
p1186
S'0xd8'
p1187
sS'low_fuses'
p1188
S'0xff'
p1189
sS'lock_bits'
p1190
S'0x2F'
p1191
sS'file'
p1192
S'Caterina-Robot-Control.hex'
p1193
sS'path'
p1194
S'caterina-Arduino_Robot'
p1195
sS'unlock_bits'
p1196
S'0x3F'
p1197
ssS'build'
p1198
(dp1199
S'core'
p1200
S'robot'
p1201
sS'f_cpu'
p1202
S'16000000L'
p1203
sS'vid'
p1204
S'0x2341'
p1205
sS'pid'
p1206
S'0x8038'
p1207
sS'variant'
p1208
S'robot_control'
p1209
sS'mcu'
p1210
S'atmega32u4'
p1211
ssS'name'
p1212
S'Arduino Robot Control'
p1213
sS'upload'
p1214
(dp1215
S'protocol'
p1216
S'avr109'
p1217
sS'maximum_size'
p1218
S'28672'
p1219
sS'speed'
p1220
S'57600'
p1221
sS'disable_flushing'
p1222
S'true'
p1223
ssaa(lp1224
S'robotMotor'
p1225
a(dp1226
g154
S'/usr/share/arduino/hardware/arduino'
p1227
sS'bootloader'
p1228
(dp1229
S'extended_fuses'
p1230
S'0xcb'
p1231
sS'high_fuses'
p1232
S'0xd8'
p1233
sS'low_fuses'
p1234
S'0xff'
p1235
sS'lock_bits'
p1236
S'0x2F'
p1237
sS'file'
p1238
S'Caterina-Robot-Motor.hex'
p1239
sS'path'
p1240
S'caterina-Arduino_Robot'
p1241
sS'unlock_bits'
p1242
S'0x3F'
p1243
ssS'build'
p1244
(dp1245
S'core'
p1246
S'robot'
p1247
sS'f_cpu'
p1248
S'16000000L'
p1249
sS'vid'
p1250
S'0x2341'
p1251
sS'pid'
p1252
S'0x8039'
p1253
sS'variant'
p1254
S'robot_motor'
p1255
sS'mcu'
p1256
S'atmega32u4'
p1257
ssS'name'
p1258
S'Arduino Robot Motor'
p1259
sS'upload'
p1260
(dp1261
S'protocol'
p1262
S'avr109'
p1263
sS'maximum_size'
p1264
S'28672'
p1265
sS'speed'
p1266
S'57600'
p1267
sS'disable_flushing'
p1268
S'true'
p1269
ssaatp1270
Rp1271
(dp1272
S'default'
p1273
S'uno'
p1274
sbtp1275
a(S'ldflags'
p1276
g2
(g3
g4
(lp1277
g6
aS'-Wl,-Os'
p1278
aS'-Wl,--gc-sections'
p1279
atp1280
Rp1281
tp1282
a.