(lp0
(S'cppflags'
p1
ccopy_reg
_reconstructor
p2
(cino.utils
SpaceList
p3
c__builtin__
list
p4
(lp5
S'-mmcu=atmega328p'
p6
aS'-DF_CPU=16000000L'
p7
aS'-DARDUINO=105'
p8
aS'-I/usr/share/arduino/hardware/arduino/cores/arduino'
p9
aS'-ffunction-sections'
p10
aS'-fdata-sections'
p11
aS'-g'
p12
aS'-Os'
p13
aS'-w'
p14
aS'-I/usr/share/arduino/hardware/arduino/variants/standard'
p15
aS'-Ilib/Sail'
p16
aS'-Ilib/WindSensor'
p17
aS'-Ilib/ControllerInterface'
p18
aS'-Ilib/IMU'
p19
aS'-Ilib/GPS'
p20
aS'-Ilib/Rudder'
p21
aS'-Ilib/TinyGPSPlus'
p22
aS'-Ilib/TinyGPSPlus/src'
p23
aS'-Ilib/SensorsInterface'
p24
aS'-Ilib/Actuators'
p25
aS'-I/usr/share/arduino/libraries/Servo'
p26
aS'-Ilib/Sailboat'
p27
aS'-Ilib/Log'
p28
aS'-Ilib/Helper'
p29
aS'-I/usr/share/arduino/libraries/SD'
p30
aS'-I/usr/share/arduino/libraries/SD/utility'
p31
aS'-Ilib/LiquidCrystal-I2C'
p32
aS'-I/usr/share/arduino/libraries/SPI'
p33
aS'-I/usr/share/arduino/libraries/Wire'
p34
aS'-I/usr/share/arduino/libraries/Wire/utility'
p35
aS'-I/usr/share/arduino/hardware/arduino/cores/arduino'
p36
aS'-I/usr/share/arduino/hardware/arduino/cores/arduino/avr-libc'
p37
atp38
Rp39
tp40
a(S'arduino_variants_dir'
p41
S'/usr/share/arduino/hardware/arduino/variants'
p42
tp43
a(S'version.txt'
p44
S'/usr/share/arduino/lib/version.txt'
p45
tp46
a(S'used_libs'
p47
(lp48
S'lib/Sail'
p49
aS'lib/WindSensor'
p50
aS'lib/ControllerInterface'
p51
aS'lib/IMU'
p52
aS'lib/GPS'
p53
aS'lib/Rudder'
p54
aS'lib/TinyGPSPlus'
p55
aS'lib/SensorsInterface'
p56
aS'lib/Actuators'
p57
aS'/usr/share/arduino/libraries/Servo'
p58
aS'lib/Sailboat'
p59
aS'lib/Log'
p60
aS'lib/Helper'
p61
aS'/usr/share/arduino/libraries/SD'
p62
aS'lib/LiquidCrystal-I2C'
p63
aS'/usr/share/arduino/libraries/SPI'
p64
aS'/usr/share/arduino/libraries/Wire'
p65
aS'/usr/share/arduino/hardware/arduino/cores/arduino'
p66
atp67
a(S'cc'
p68
S'/usr/share/arduino/hardware/tools/avr/bin/avr-gcc'
p69
tp70
a(S'make'
p71
S'/usr/share/arduino/hardware/tools/avr/bin/make'
p72
tp73
a(S'cflags'
p74
g2
(g3
g4
(lp75
tp76
Rp77
tp78
a(S'build_dir'
p79
S'.build/uno'
p80
tp81
a(S'arduino_core_dir'
p82
g66
tp83
a(S'boards.txt'
p84
(lp85
S'/usr/share/arduino/hardware/arduino/boards.txt'
p86
atp87
a(S'cxxflags'
p88
g2
(g3
g4
(lp89
S'-fno-exceptions'
p90
atp91
Rp92
tp93
a(S'cxx'
p94
S'/usr/share/arduino/hardware/tools/avr/bin/avr-g++'
p95
tp96
a(S'ar'
p97
S'/usr/share/arduino/hardware/tools/avr/bin/avr-ar'
p98
tp99
a(S'names'
p100
(dp101
S'cpp'
p102
S'%s.cpp'
p103
sS'obj'
p104
S'%s.o'
p105
sS'deps'
p106
S'%s.d'
p107
sS'lib'
p108
S'lib%s.a'
p109
stp110
a(S'deps'
p111
g2
(g3
g4
(lp112
S'.build/uno/src/dependencies.d'
p113
aS'.build/uno/arduino/dependencies.d'
p114
aS'.build/uno/Log/dependencies.d'
p115
aS'.build/uno/WindSensor/dependencies.d'
p116
aS'.build/uno/Sail/dependencies.d'
p117
aS'.build/uno/Helper/dependencies.d'
p118
aS'.build/uno/SD/dependencies.d'
p119
aS'.build/uno/LiquidCrystal-I2C/dependencies.d'
p120
aS'.build/uno/Sailboat/dependencies.d'
p121
aS'.build/uno/ControllerInterface/dependencies.d'
p122
aS'.build/uno/Wire/dependencies.d'
p123
aS'.build/uno/IMU/dependencies.d'
p124
aS'.build/uno/TinyGPSPlus/dependencies.d'
p125
aS'.build/uno/SPI/dependencies.d'
p126
aS'.build/uno/SensorsInterface/dependencies.d'
p127
aS'.build/uno/Actuators/dependencies.d'
p128
aS'.build/uno/Servo/dependencies.d'
p129
aS'.build/uno/GPS/dependencies.d'
p130
aS'.build/uno/Rudder/dependencies.d'
p131
atp132
Rp133
tp134
a(S'arduino_libraries_dir'
p135
S'/usr/share/arduino/libraries'
p136
tp137
a(S'arduino_lib_version'
p138
g2
(cino.environment
Version
p139
c__builtin__
tuple
p140
(I1
I0
I5
tp141
tp142
Rp143
tp144
a(S'objcopy'
p145
S'/usr/share/arduino/hardware/tools/avr/bin/avr-objcopy'
p146
tp147
a(S'board_models'
p148
cino.environment
BoardModels
p149
((lp150
(lp151
S'uno'
p152
a(dp153
S'_coredir'
p154
S'/usr/share/arduino/hardware/arduino'
p155
sS'bootloader'
p156
(dp157
S'extended_fuses'
p158
S'0x05'
p159
sS'high_fuses'
p160
S'0xde'
p161
sS'low_fuses'
p162
S'0xff'
p163
sS'lock_bits'
p164
S'0x0F'
p165
sS'file'
p166
S'optiboot_atmega328.hex'
p167
sS'path'
p168
S'optiboot'
p169
sS'unlock_bits'
p170
S'0x3F'
p171
ssS'upload'
p172
(dp173
S'protocol'
p174
S'arduino'
p175
sS'maximum_size'
p176
S'32256'
p177
sS'speed'
p178
S'115200'
p179
ssS'name'
p180
S'Arduino Uno'
p181
sS'build'
p182
(dp183
S'core'
p184
S'arduino'
p185
sS'mcu'
p186
S'atmega328p'
p187
sS'f_cpu'
p188
S'16000000L'
p189
sS'variant'
p190
S'standard'
p191
ssaa(lp192
S'atmega328'
p193
a(dp194
g154
S'/usr/share/arduino/hardware/arduino'
p195
sS'bootloader'
p196
(dp197
S'extended_fuses'
p198
S'0x05'
p199
sS'high_fuses'
p200
S'0xDA'
p201
sS'low_fuses'
p202
S'0xFF'
p203
sS'lock_bits'
p204
S'0x0F'
p205
sS'file'
p206
S'ATmegaBOOT_168_atmega328.hex'
p207
sS'path'
p208
S'atmega'
p209
sS'unlock_bits'
p210
S'0x3F'
p211
ssS'upload'
p212
(dp213
S'protocol'
p214
S'arduino'
p215
sS'maximum_size'
p216
S'30720'
p217
sS'speed'
p218
S'57600'
p219
ssS'name'
p220
S'Arduino Duemilanove w/ ATmega328'
p221
sS'build'
p222
(dp223
S'core'
p224
S'arduino'
p225
sS'mcu'
p226
S'atmega328p'
p227
sS'f_cpu'
p228
S'16000000L'
p229
sS'variant'
p230
S'standard'
p231
ssaa(lp232
S'diecimila'
p233
a(dp234
g154
S'/usr/share/arduino/hardware/arduino'
p235
sS'bootloader'
p236
(dp237
S'extended_fuses'
p238
S'0x00'
p239
sS'high_fuses'
p240
S'0xdd'
p241
sS'low_fuses'
p242
S'0xff'
p243
sS'lock_bits'
p244
S'0x0F'
p245
sS'file'
p246
S'ATmegaBOOT_168_diecimila.hex'
p247
sS'path'
p248
S'atmega'
p249
sS'unlock_bits'
p250
S'0x3F'
p251
ssS'upload'
p252
(dp253
S'protocol'
p254
S'arduino'
p255
sS'maximum_size'
p256
S'14336'
p257
sS'speed'
p258
S'19200'
p259
ssS'name'
p260
S'Arduino Diecimila or Duemilanove w/ ATmega168'
p261
sS'build'
p262
(dp263
S'core'
p264
S'arduino'
p265
sS'mcu'
p266
S'atmega168'
p267
sS'f_cpu'
p268
S'16000000L'
p269
sS'variant'
p270
S'standard'
p271
ssaa(lp272
S'nano328'
p273
a(dp274
g154
S'/usr/share/arduino/hardware/arduino'
p275
sS'bootloader'
p276
(dp277
S'extended_fuses'
p278
S'0x05'
p279
sS'high_fuses'
p280
S'0xDA'
p281
sS'low_fuses'
p282
S'0xFF'
p283
sS'lock_bits'
p284
S'0x0F'
p285
sS'file'
p286
S'ATmegaBOOT_168_atmega328.hex'
p287
sS'path'
p288
S'atmega'
p289
sS'unlock_bits'
p290
S'0x3F'
p291
ssS'upload'
p292
(dp293
S'protocol'
p294
S'arduino'
p295
sS'maximum_size'
p296
S'30720'
p297
sS'speed'
p298
S'57600'
p299
ssS'name'
p300
S'Arduino Nano w/ ATmega328'
p301
sS'build'
p302
(dp303
S'core'
p304
S'arduino'
p305
sS'mcu'
p306
S'atmega328p'
p307
sS'f_cpu'
p308
S'16000000L'
p309
sS'variant'
p310
S'eightanaloginputs'
p311
ssaa(lp312
S'nano'
p313
a(dp314
g154
S'/usr/share/arduino/hardware/arduino'
p315
sS'bootloader'
p316
(dp317
S'extended_fuses'
p318
S'0x00'
p319
sS'high_fuses'
p320
S'0xdd'
p321
sS'low_fuses'
p322
S'0xff'
p323
sS'lock_bits'
p324
S'0x0F'
p325
sS'file'
p326
S'ATmegaBOOT_168_diecimila.hex'
p327
sS'path'
p328
S'atmega'
p329
sS'unlock_bits'
p330
S'0x3F'
p331
ssS'upload'
p332
(dp333
S'protocol'
p334
S'arduino'
p335
sS'maximum_size'
p336
S'14336'
p337
sS'speed'
p338
S'19200'
p339
ssS'name'
p340
S'Arduino Nano w/ ATmega168'
p341
sS'build'
p342
(dp343
S'core'
p344
S'arduino'
p345
sS'mcu'
p346
S'atmega168'
p347
sS'f_cpu'
p348
S'16000000L'
p349
sS'variant'
p350
S'eightanaloginputs'
p351
ssaa(lp352
S'mega2560'
p353
a(dp354
g154
S'/usr/share/arduino/hardware/arduino'
p355
sS'bootloader'
p356
(dp357
S'extended_fuses'
p358
S'0xFD'
p359
sS'high_fuses'
p360
S'0xD8'
p361
sS'low_fuses'
p362
S'0xFF'
p363
sS'lock_bits'
p364
S'0x0F'
p365
sS'file'
p366
S'stk500boot_v2_mega2560.hex'
p367
sS'path'
p368
S'stk500v2'
p369
sS'unlock_bits'
p370
S'0x3F'
p371
ssS'upload'
p372
(dp373
S'protocol'
p374
S'wiring'
p375
sS'maximum_size'
p376
S'258048'
p377
sS'speed'
p378
S'115200'
p379
ssS'name'
p380
S'Arduino Mega 2560 or Mega ADK'
p381
sS'build'
p382
(dp383
S'core'
p384
S'arduino'
p385
sS'mcu'
p386
S'atmega2560'
p387
sS'f_cpu'
p388
S'16000000L'
p389
sS'variant'
p390
S'mega'
p391
ssaa(lp392
S'mega'
p393
a(dp394
g154
S'/usr/share/arduino/hardware/arduino'
p395
sS'bootloader'
p396
(dp397
S'extended_fuses'
p398
S'0xF5'
p399
sS'high_fuses'
p400
S'0xDA'
p401
sS'low_fuses'
p402
S'0xFF'
p403
sS'lock_bits'
p404
S'0x0F'
p405
sS'file'
p406
S'ATmegaBOOT_168_atmega1280.hex'
p407
sS'path'
p408
S'atmega'
p409
sS'unlock_bits'
p410
S'0x3F'
p411
ssS'upload'
p412
(dp413
S'protocol'
p414
S'arduino'
p415
sS'maximum_size'
p416
S'126976'
p417
sS'speed'
p418
S'57600'
p419
ssS'name'
p420
S'Arduino Mega (ATmega1280)'
p421
sS'build'
p422
(dp423
S'core'
p424
S'arduino'
p425
sS'mcu'
p426
S'atmega1280'
p427
sS'f_cpu'
p428
S'16000000L'
p429
sS'variant'
p430
S'mega'
p431
ssaa(lp432
S'leonardo'
p433
a(dp434
g154
S'/usr/share/arduino/hardware/arduino'
p435
sS'bootloader'
p436
(dp437
S'extended_fuses'
p438
S'0xcb'
p439
sS'high_fuses'
p440
S'0xd8'
p441
sS'low_fuses'
p442
S'0xff'
p443
sS'lock_bits'
p444
S'0x2F'
p445
sS'file'
p446
S'Caterina-Leonardo.hex'
p447
sS'path'
p448
S'caterina'
p449
sS'unlock_bits'
p450
S'0x3F'
p451
ssS'upload'
p452
(dp453
S'protocol'
p454
S'avr109'
p455
sS'maximum_size'
p456
S'28672'
p457
sS'speed'
p458
S'57600'
p459
sS'disable_flushing'
p460
S'true'
p461
ssS'name'
p462
S'Arduino Leonardo'
p463
sS'build'
p464
(dp465
S'core'
p466
S'arduino'
p467
sS'f_cpu'
p468
S'16000000L'
p469
sS'vid'
p470
S'0x2341'
p471
sS'pid'
p472
S'0x8036'
p473
sS'variant'
p474
S'leonardo'
p475
sS'mcu'
p476
S'atmega32u4'
p477
ssaa(lp478
S'esplora'
p479
a(dp480
g154
S'/usr/share/arduino/hardware/arduino'
p481
sS'bootloader'
p482
(dp483
S'extended_fuses'
p484
S'0xcb'
p485
sS'high_fuses'
p486
S'0xd8'
p487
sS'low_fuses'
p488
S'0xff'
p489
sS'lock_bits'
p490
S'0x2F'
p491
sS'file'
p492
S'Caterina-Esplora.hex'
p493
sS'path'
p494
S'caterina'
p495
sS'unlock_bits'
p496
S'0x3F'
p497
ssS'upload'
p498
(dp499
S'protocol'
p500
S'avr109'
p501
sS'maximum_size'
p502
S'28672'
p503
sS'speed'
p504
S'57600'
p505
sS'disable_flushing'
p506
S'true'
p507
ssS'name'
p508
S'Arduino Esplora'
p509
sS'build'
p510
(dp511
S'core'
p512
S'arduino'
p513
sS'f_cpu'
p514
S'16000000L'
p515
sS'vid'
p516
S'0x2341'
p517
sS'pid'
p518
S'0x803C'
p519
sS'variant'
p520
S'leonardo'
p521
sS'mcu'
p522
S'atmega32u4'
p523
ssaa(lp524
S'micro'
p525
a(dp526
g154
S'/usr/share/arduino/hardware/arduino'
p527
sS'bootloader'
p528
(dp529
S'extended_fuses'
p530
S'0xcb'
p531
sS'high_fuses'
p532
S'0xd8'
p533
sS'low_fuses'
p534
S'0xff'
p535
sS'lock_bits'
p536
S'0x2F'
p537
sS'file'
p538
S'Caterina-Micro.hex'
p539
sS'path'
p540
S'caterina'
p541
sS'unlock_bits'
p542
S'0x3F'
p543
ssS'upload'
p544
(dp545
S'protocol'
p546
S'avr109'
p547
sS'maximum_size'
p548
S'28672'
p549
sS'speed'
p550
S'57600'
p551
sS'disable_flushing'
p552
S'true'
p553
ssS'name'
p554
S'Arduino Micro'
p555
sS'build'
p556
(dp557
S'core'
p558
S'arduino'
p559
sS'f_cpu'
p560
S'16000000L'
p561
sS'vid'
p562
S'0x2341'
p563
sS'pid'
p564
S'0x8037'
p565
sS'variant'
p566
S'micro'
p567
sS'mcu'
p568
S'atmega32u4'
p569
ssaa(lp570
S'mini328'
p571
a(dp572
g154
S'/usr/share/arduino/hardware/arduino'
p573
sS'bootloader'
p574
(dp575
S'extended_fuses'
p576
S'0x05'
p577
sS'high_fuses'
p578
S'0xd8'
p579
sS'low_fuses'
p580
S'0xff'
p581
sS'lock_bits'
p582
S'0x0F'
p583
sS'file'
p584
S'optiboot_atmega328-Mini.hex'
p585
sS'path'
p586
S'optiboot'
p587
sS'unlock_bits'
p588
S'0x3F'
p589
ssS'upload'
p590
(dp591
S'protocol'
p592
S'arduino'
p593
sS'maximum_size'
p594
S'28672'
p595
sS'speed'
p596
S'115200'
p597
ssS'name'
p598
S'Arduino Mini w/ ATmega328'
p599
sS'build'
p600
(dp601
S'core'
p602
S'arduino'
p603
sS'mcu'
p604
S'atmega328p'
p605
sS'f_cpu'
p606
S'16000000L'
p607
sS'variant'
p608
S'eightanaloginputs'
p609
ssaa(lp610
S'mini'
p611
a(dp612
g154
S'/usr/share/arduino/hardware/arduino'
p613
sS'bootloader'
p614
(dp615
S'extended_fuses'
p616
S'0x00'
p617
sS'high_fuses'
p618
S'0xdd'
p619
sS'low_fuses'
p620
S'0xff'
p621
sS'lock_bits'
p622
S'0x0F'
p623
sS'file'
p624
S'ATmegaBOOT_168_ng.hex'
p625
sS'path'
p626
S'atmega'
p627
sS'unlock_bits'
p628
S'0x3F'
p629
ssS'upload'
p630
(dp631
S'protocol'
p632
S'arduino'
p633
sS'maximum_size'
p634
S'14336'
p635
sS'speed'
p636
S'19200'
p637
ssS'name'
p638
S'Arduino Mini w/ ATmega168'
p639
sS'build'
p640
(dp641
S'core'
p642
S'arduino'
p643
sS'mcu'
p644
S'atmega168'
p645
sS'f_cpu'
p646
S'16000000L'
p647
sS'variant'
p648
S'eightanaloginputs'
p649
ssaa(lp650
S'ethernet'
p651
a(dp652
g154
S'/usr/share/arduino/hardware/arduino'
p653
sS'bootloader'
p654
(dp655
S'extended_fuses'
p656
S'0x05'
p657
sS'high_fuses'
p658
S'0xde'
p659
sS'low_fuses'
p660
S'0xff'
p661
sS'lock_bits'
p662
S'0x0F'
p663
sS'file'
p664
S'optiboot_atmega328.hex'
p665
sS'path'
p666
S'optiboot'
p667
sS'unlock_bits'
p668
S'0x3F'
p669
ssS'upload'
p670
(dp671
S'protocol'
p672
S'arduino'
p673
sS'maximum_size'
p674
S'32256'
p675
sS'speed'
p676
S'115200'
p677
ssS'name'
p678
S'Arduino Ethernet'
p679
sS'build'
p680
(dp681
S'variant'
p682
S'standard'
p683
sS'mcu'
p684
S'atmega328p'
p685
sS'f_cpu'
p686
S'16000000L'
p687
sS'core'
p688
S'arduino'
p689
ssaa(lp690
S'fio'
p691
a(dp692
g154
S'/usr/share/arduino/hardware/arduino'
p693
sS'bootloader'
p694
(dp695
S'extended_fuses'
p696
S'0x05'
p697
sS'high_fuses'
p698
S'0xDA'
p699
sS'low_fuses'
p700
S'0xFF'
p701
sS'lock_bits'
p702
S'0x0F'
p703
sS'file'
p704
S'ATmegaBOOT_168_atmega328_pro_8MHz.hex'
p705
sS'path'
p706
S'arduino:atmega'
p707
sS'unlock_bits'
p708
S'0x3F'
p709
ssS'upload'
p710
(dp711
S'protocol'
p712
S'arduino'
p713
sS'maximum_size'
p714
S'30720'
p715
sS'speed'
p716
S'57600'
p717
ssS'name'
p718
S'Arduino Fio'
p719
sS'build'
p720
(dp721
S'core'
p722
S'arduino'
p723
sS'mcu'
p724
S'atmega328p'
p725
sS'f_cpu'
p726
S'8000000L'
p727
sS'variant'
p728
S'eightanaloginputs'
p729
ssaa(lp730
S'bt328'
p731
a(dp732
g154
S'/usr/share/arduino/hardware/arduino'
p733
sS'bootloader'
p734
(dp735
S'extended_fuses'
p736
S'0x05'
p737
sS'high_fuses'
p738
S'0xd8'
p739
sS'low_fuses'
p740
S'0xff'
p741
sS'lock_bits'
p742
S'0x0F'
p743
sS'file'
p744
S'ATmegaBOOT_168_atmega328_bt.hex'
p745
sS'path'
p746
S'bt'
p747
sS'unlock_bits'
p748
S'0x3F'
p749
ssS'upload'
p750
(dp751
S'protocol'
p752
S'arduino'
p753
sS'maximum_size'
p754
S'28672'
p755
sS'speed'
p756
S'19200'
p757
sS'disable_flushing'
p758
S'true'
p759
ssS'name'
p760
S'Arduino BT w/ ATmega328'
p761
sS'build'
p762
(dp763
S'core'
p764
S'arduino'
p765
sS'mcu'
p766
S'atmega328p'
p767
sS'f_cpu'
p768
S'16000000L'
p769
sS'variant'
p770
S'eightanaloginputs'
p771
ssaa(lp772
S'bt'
p773
a(dp774
g154
S'/usr/share/arduino/hardware/arduino'
p775
sS'bootloader'
p776
(dp777
S'extended_fuses'
p778
S'0x00'
p779
sS'high_fuses'
p780
S'0xdd'
p781
sS'low_fuses'
p782
S'0xff'
p783
sS'lock_bits'
p784
S'0x0F'
p785
sS'file'
p786
S'ATmegaBOOT_168.hex'
p787
sS'path'
p788
S'bt'
p789
sS'unlock_bits'
p790
S'0x3F'
p791
ssS'upload'
p792
(dp793
S'protocol'
p794
S'arduino'
p795
sS'maximum_size'
p796
S'14336'
p797
sS'speed'
p798
S'19200'
p799
sS'disable_flushing'
p800
S'true'
p801
ssS'name'
p802
S'Arduino BT w/ ATmega168'
p803
sS'build'
p804
(dp805
S'core'
p806
S'arduino'
p807
sS'mcu'
p808
S'atmega168'
p809
sS'f_cpu'
p810
S'16000000L'
p811
sS'variant'
p812
S'eightanaloginputs'
p813
ssaa(lp814
S'LilyPadUSB'
p815
a(dp816
g154
S'/usr/share/arduino/hardware/arduino'
p817
sS'bootloader'
p818
(dp819
S'extended_fuses'
p820
S'0xce'
p821
sS'high_fuses'
p822
S'0xd8'
p823
sS'low_fuses'
p824
S'0xff'
p825
sS'lock_bits'
p826
S'0x2F'
p827
sS'file'
p828
S'Caterina-LilyPadUSB.hex'
p829
sS'path'
p830
S'caterina-LilyPadUSB'
p831
sS'unlock_bits'
p832
S'0x3F'
p833
ssS'upload'
p834
(dp835
S'protocol'
p836
S'avr109'
p837
sS'maximum_size'
p838
S'28672'
p839
sS'speed'
p840
S'57600'
p841
sS'disable_flushing'
p842
S'true'
p843
ssS'name'
p844
S'LilyPad Arduino USB'
p845
sS'build'
p846
(dp847
S'core'
p848
S'arduino'
p849
sS'f_cpu'
p850
S'8000000L'
p851
sS'vid'
p852
S'0x1B4F'
p853
sS'pid'
p854
S'0x9208'
p855
sS'variant'
p856
S'leonardo'
p857
sS'mcu'
p858
S'atmega32u4'
p859
ssaa(lp860
S'lilypad328'
p861
a(dp862
g154
S'/usr/share/arduino/hardware/arduino'
p863
sS'bootloader'
p864
(dp865
S'extended_fuses'
p866
S'0x05'
p867
sS'high_fuses'
p868
S'0xDA'
p869
sS'low_fuses'
p870
S'0xFF'
p871
sS'lock_bits'
p872
S'0x0F'
p873
sS'file'
p874
S'ATmegaBOOT_168_atmega328_pro_8MHz.hex'
p875
sS'path'
p876
S'atmega'
p877
sS'unlock_bits'
p878
S'0x3F'
p879
ssS'upload'
p880
(dp881
S'protocol'
p882
S'arduino'
p883
sS'maximum_size'
p884
S'30720'
p885
sS'speed'
p886
S'57600'
p887
ssS'name'
p888
S'LilyPad Arduino w/ ATmega328'
p889
sS'build'
p890
(dp891
S'core'
p892
S'arduino'
p893
sS'mcu'
p894
S'atmega328p'
p895
sS'f_cpu'
p896
S'8000000L'
p897
sS'variant'
p898
S'standard'
p899
ssaa(lp900
S'lilypad'
p901
a(dp902
g154
S'/usr/share/arduino/hardware/arduino'
p903
sS'bootloader'
p904
(dp905
S'extended_fuses'
p906
S'0x00'
p907
sS'high_fuses'
p908
S'0xdd'
p909
sS'low_fuses'
p910
S'0xe2'
p911
sS'lock_bits'
p912
S'0x0F'
p913
sS'file'
p914
S'LilyPadBOOT_168.hex'
p915
sS'path'
p916
S'lilypad'
p917
sS'unlock_bits'
p918
S'0x3F'
p919
ssS'upload'
p920
(dp921
S'protocol'
p922
S'arduino'
p923
sS'maximum_size'
p924
S'14336'
p925
sS'speed'
p926
S'19200'
p927
ssS'name'
p928
S'LilyPad Arduino w/ ATmega168'
p929
sS'build'
p930
(dp931
S'core'
p932
S'arduino'
p933
sS'mcu'
p934
S'atmega168'
p935
sS'f_cpu'
p936
S'8000000L'
p937
sS'variant'
p938
S'standard'
p939
ssaa(lp940
S'pro5v328'
p941
a(dp942
g154
S'/usr/share/arduino/hardware/arduino'
p943
sS'bootloader'
p944
(dp945
S'extended_fuses'
p946
S'0x05'
p947
sS'high_fuses'
p948
S'0xDA'
p949
sS'low_fuses'
p950
S'0xFF'
p951
sS'lock_bits'
p952
S'0x0F'
p953
sS'file'
p954
S'ATmegaBOOT_168_atmega328.hex'
p955
sS'path'
p956
S'atmega'
p957
sS'unlock_bits'
p958
S'0x3F'
p959
ssS'upload'
p960
(dp961
S'protocol'
p962
S'arduino'
p963
sS'maximum_size'
p964
S'30720'
p965
sS'speed'
p966
S'57600'
p967
ssS'name'
p968
S'Arduino Pro or Pro Mini (5V, 16 MHz) w/ ATmega328'
p969
sS'build'
p970
(dp971
S'core'
p972
S'arduino'
p973
sS'mcu'
p974
S'atmega328p'
p975
sS'f_cpu'
p976
S'16000000L'
p977
sS'variant'
p978
S'standard'
p979
ssaa(lp980
S'pro5v'
p981
a(dp982
g154
S'/usr/share/arduino/hardware/arduino'
p983
sS'bootloader'
p984
(dp985
S'extended_fuses'
p986
S'0x00'
p987
sS'high_fuses'
p988
S'0xdd'
p989
sS'low_fuses'
p990
S'0xff'
p991
sS'lock_bits'
p992
S'0x0F'
p993
sS'file'
p994
S'ATmegaBOOT_168_diecimila.hex'
p995
sS'path'
p996
S'atmega'
p997
sS'unlock_bits'
p998
S'0x3F'
p999
ssS'upload'
p1000
(dp1001
S'protocol'
p1002
S'arduino'
p1003
sS'maximum_size'
p1004
S'14336'
p1005
sS'speed'
p1006
S'19200'
p1007
ssS'name'
p1008
S'Arduino Pro or Pro Mini (5V, 16 MHz) w/ ATmega168'
p1009
sS'build'
p1010
(dp1011
S'core'
p1012
S'arduino'
p1013
sS'mcu'
p1014
S'atmega168'
p1015
sS'f_cpu'
p1016
S'16000000L'
p1017
sS'variant'
p1018
S'standard'
p1019
ssaa(lp1020
S'pro328'
p1021
a(dp1022
g154
S'/usr/share/arduino/hardware/arduino'
p1023
sS'bootloader'
p1024
(dp1025
S'extended_fuses'
p1026
S'0x05'
p1027
sS'high_fuses'
p1028
S'0xDA'
p1029
sS'low_fuses'
p1030
S'0xFF'
p1031
sS'lock_bits'
p1032
S'0x0F'
p1033
sS'file'
p1034
S'ATmegaBOOT_168_atmega328_pro_8MHz.hex'
p1035
sS'path'
p1036
S'atmega'
p1037
sS'unlock_bits'
p1038
S'0x3F'
p1039
ssS'upload'
p1040
(dp1041
S'protocol'
p1042
S'arduino'
p1043
sS'maximum_size'
p1044
S'30720'
p1045
sS'speed'
p1046
S'57600'
p1047
ssS'name'
p1048
S'Arduino Pro or Pro Mini (3.3V, 8 MHz) w/ ATmega328'
p1049
sS'build'
p1050
(dp1051
S'core'
p1052
S'arduino'
p1053
sS'mcu'
p1054
S'atmega328p'
p1055
sS'f_cpu'
p1056
S'8000000L'
p1057
sS'variant'
p1058
S'standard'
p1059
ssaa(lp1060
S'pro'
p1061
a(dp1062
g154
S'/usr/share/arduino/hardware/arduino'
p1063
sS'bootloader'
p1064
(dp1065
S'extended_fuses'
p1066
S'0x00'
p1067
sS'high_fuses'
p1068
S'0xdd'
p1069
sS'low_fuses'
p1070
S'0xc6'
p1071
sS'lock_bits'
p1072
S'0x0F'
p1073
sS'file'
p1074
S'ATmegaBOOT_168_pro_8MHz.hex'
p1075
sS'path'
p1076
S'atmega'
p1077
sS'unlock_bits'
p1078
S'0x3F'
p1079
ssS'upload'
p1080
(dp1081
S'protocol'
p1082
S'arduino'
p1083
sS'maximum_size'
p1084
S'14336'
p1085
sS'speed'
p1086
S'19200'
p1087
ssS'name'
p1088
S'Arduino Pro or Pro Mini (3.3V, 8 MHz) w/ ATmega168'
p1089
sS'build'
p1090
(dp1091
S'core'
p1092
S'arduino'
p1093
sS'mcu'
p1094
S'atmega168'
p1095
sS'f_cpu'
p1096
S'8000000L'
p1097
sS'variant'
p1098
S'standard'
p1099
ssaa(lp1100
S'atmega168'
p1101
a(dp1102
g154
S'/usr/share/arduino/hardware/arduino'
p1103
sS'bootloader'
p1104
(dp1105
S'extended_fuses'
p1106
S'0x00'
p1107
sS'high_fuses'
p1108
S'0xdd'
p1109
sS'low_fuses'
p1110
S'0xff'
p1111
sS'lock_bits'
p1112
S'0x0F'
p1113
sS'file'
p1114
S'ATmegaBOOT_168_ng.hex'
p1115
sS'path'
p1116
S'atmega'
p1117
sS'unlock_bits'
p1118
S'0x3F'
p1119
ssS'upload'
p1120
(dp1121
S'protocol'
p1122
S'arduino'
p1123
sS'maximum_size'
p1124
S'14336'
p1125
sS'speed'
p1126
S'19200'
p1127
ssS'name'
p1128
S'Arduino NG or older w/ ATmega168'
p1129
sS'build'
p1130
(dp1131
S'core'
p1132
S'arduino'
p1133
sS'mcu'
p1134
S'atmega168'
p1135
sS'f_cpu'
p1136
S'16000000L'
p1137
sS'variant'
p1138
S'standard'
p1139
ssaa(lp1140
S'atmega8'
p1141
a(dp1142
g154
S'/usr/share/arduino/hardware/arduino'
p1143
sS'bootloader'
p1144
(dp1145
S'high_fuses'
p1146
S'0xca'
p1147
sS'low_fuses'
p1148
S'0xdf'
p1149
sS'lock_bits'
p1150
S'0x0F'
p1151
sS'file'
p1152
S'ATmegaBOOT-prod-firmware-2009-11-07.hex'
p1153
sS'path'
p1154
S'atmega8'
p1155
sS'unlock_bits'
p1156
S'0x3F'
p1157
ssS'upload'
p1158
(dp1159
S'protocol'
p1160
S'arduino'
p1161
sS'maximum_size'
p1162
S'7168'
p1163
sS'speed'
p1164
S'19200'
p1165
ssS'name'
p1166
S'Arduino NG or older w/ ATmega8'
p1167
sS'build'
p1168
(dp1169
S'core'
p1170
S'arduino'
p1171
sS'mcu'
p1172
S'atmega8'
p1173
sS'f_cpu'
p1174
S'16000000L'
p1175
sS'variant'
p1176
S'standard'
p1177
ssaa(lp1178
S'robotControl'
p1179
a(dp1180
g154
S'/usr/share/arduino/hardware/arduino'
p1181
sS'bootloader'
p1182
(dp1183
S'extended_fuses'
p1184
S'0xcb'
p1185
sS'high_fuses'
p1186
S'0xd8'
p1187
sS'low_fuses'
p1188
S'0xff'
p1189
sS'lock_bits'
p1190
S'0x2F'
p1191
sS'file'
p1192
S'Caterina-Robot-Control.hex'
p1193
sS'path'
p1194
S'caterina-Arduino_Robot'
p1195
sS'unlock_bits'
p1196
S'0x3F'
p1197
ssS'upload'
p1198
(dp1199
S'protocol'
p1200
S'avr109'
p1201
sS'maximum_size'
p1202
S'28672'
p1203
sS'speed'
p1204
S'57600'
p1205
sS'disable_flushing'
p1206
S'true'
p1207
ssS'name'
p1208
S'Arduino Robot Control'
p1209
sS'build'
p1210
(dp1211
S'core'
p1212
S'robot'
p1213
sS'f_cpu'
p1214
S'16000000L'
p1215
sS'vid'
p1216
S'0x2341'
p1217
sS'pid'
p1218
S'0x8038'
p1219
sS'variant'
p1220
S'robot_control'
p1221
sS'mcu'
p1222
S'atmega32u4'
p1223
ssaa(lp1224
S'robotMotor'
p1225
a(dp1226
g154
S'/usr/share/arduino/hardware/arduino'
p1227
sS'bootloader'
p1228
(dp1229
S'extended_fuses'
p1230
S'0xcb'
p1231
sS'high_fuses'
p1232
S'0xd8'
p1233
sS'low_fuses'
p1234
S'0xff'
p1235
sS'lock_bits'
p1236
S'0x2F'
p1237
sS'file'
p1238
S'Caterina-Robot-Motor.hex'
p1239
sS'path'
p1240
S'caterina-Arduino_Robot'
p1241
sS'unlock_bits'
p1242
S'0x3F'
p1243
ssS'upload'
p1244
(dp1245
S'protocol'
p1246
S'avr109'
p1247
sS'maximum_size'
p1248
S'28672'
p1249
sS'speed'
p1250
S'57600'
p1251
sS'disable_flushing'
p1252
S'true'
p1253
ssS'name'
p1254
S'Arduino Robot Motor'
p1255
sS'build'
p1256
(dp1257
S'core'
p1258
S'robot'
p1259
sS'f_cpu'
p1260
S'16000000L'
p1261
sS'vid'
p1262
S'0x2341'
p1263
sS'pid'
p1264
S'0x8039'
p1265
sS'variant'
p1266
S'robot_motor'
p1267
sS'mcu'
p1268
S'atmega32u4'
p1269
ssaatp1270
Rp1271
(dp1272
S'default'
p1273
S'uno'
p1274
sbtp1275
a(S'ldflags'
p1276
g2
(g3
g4
(lp1277
g6
aS'-Wl,-Os'
p1278
aS'-Wl,--gc-sections'
p1279
atp1280
Rp1281
tp1282
a.